target datalayout = "e-m:e-p270:32:32-p271:32:32-p272:64:64-i64:64-i128:128-f80:128-n8:16:32:64-S128"
target triple = "x86_64-pc-linux-gnu"

%struct.UConverter = type { ptr, ptr, ptr, ptr, ptr, ptr, ptr, i32, i8, i8, i8, i8, i8, [7 x i8], i32, i32, i32, i32, i8, i8, i8, i8, i8, i8, i8, i8, [8 x i8], [32 x i8], [2 x i16], [2 x i16], [32 x i16], i32, [19 x i16], [31 x i8], i8, i8, i8, i32 }

; Function Attrs: inlinehint mustprogress nounwind uwtable
define internal noundef signext i8 @_ZL9U_FAILURE10UErrorCode(i32 noundef %0) #2 {
  %2 = alloca i32, align 4
  store i32 %0, ptr %2, align 4, !tbaa !9
  %3 = load i32, ptr %2, align 4, !tbaa !9
  %4 = icmp sgt i32 %3, 0
  %5 = zext i1 %4 to i8
  ret i8 %5
}

; Function Attrs: mustprogress uwtable
define void @ucnv_getInvalidUChars_77(ptr noundef %0, ptr noundef %1, ptr noundef %2, ptr noundef %3) #0 {
  %5 = alloca ptr, align 8
  %6 = alloca ptr, align 8
  %7 = alloca ptr, align 8
  %8 = alloca ptr, align 8
  store ptr %0, ptr %5, align 8, !tbaa !11
  store ptr %1, ptr %6, align 8, !tbaa !13
  store ptr %2, ptr %7, align 8, !tbaa !3
  store ptr %3, ptr %8, align 8, !tbaa !8
  %9 = load ptr, ptr %8, align 8, !tbaa !8
  %10 = icmp eq ptr %9, null
  br i1 %10, label %16, label %11

11:                                               ; preds = %4
  %12 = load ptr, ptr %8, align 8, !tbaa !8
  %13 = load i32, ptr %12, align 4, !tbaa !9
  %14 = call noundef signext i8 @_ZL9U_FAILURE10UErrorCode(i32 noundef %13)
  %15 = icmp ne i8 %14, 0
  br i1 %15, label %16, label %17

16:                                               ; preds = %11, %4
  br label %55

17:                                               ; preds = %11
  %18 = load ptr, ptr %7, align 8, !tbaa !3
  %19 = icmp eq ptr %18, null
  br i1 %19, label %26, label %20

20:                                               ; preds = %17
  %21 = load ptr, ptr %6, align 8, !tbaa !13
  %22 = icmp eq ptr %21, null
  br i1 %22, label %26, label %23

23:                                               ; preds = %20
  %24 = load ptr, ptr %5, align 8, !tbaa !11
  %25 = icmp eq ptr %24, null
  br i1 %25, label %26, label %28

26:                                               ; preds = %23, %20, %17
  %27 = load ptr, ptr %8, align 8, !tbaa !8
  store i32 1, ptr %27, align 4, !tbaa !9
  br label %55

28:                                               ; preds = %23
  %29 = load ptr, ptr %7, align 8, !tbaa !3
  %30 = load i8, ptr %29, align 1, !tbaa !19
  %31 = sext i8 %30 to i32
  %32 = load ptr, ptr %5, align 8, !tbaa !11
  %33 = getelementptr inbounds nuw %struct.UConverter, ptr %32, i32 0, i32 22
  %34 = load i8, ptr %33, align 4, !tbaa !76
  %35 = sext i8 %34 to i32
  %36 = icmp slt i32 %31, %35
  br i1 %36, label %37, label %39

37:                                               ; preds = %28
  %38 = load ptr, ptr %8, align 8, !tbaa !8
  store i32 8, ptr %38, align 4, !tbaa !9
  br label %55

39:                                               ; preds = %28
  %40 = load ptr, ptr %5, align 8, !tbaa !11
  %41 = getelementptr inbounds nuw %struct.UConverter, ptr %40, i32 0, i32 22
  %42 = load i8, ptr %41, align 4, !tbaa !76
  %43 = load ptr, ptr %7, align 8, !tbaa !3
  store i8 %42, ptr %43, align 1, !tbaa !19
  %44 = sext i8 %42 to i32
  %45 = icmp sgt i32 %44, 0
  br i1 %45, label %46, label %55

46:                                               ; preds = %39
  %47 = load ptr, ptr %6, align 8, !tbaa !13
  %48 = load ptr, ptr %5, align 8, !tbaa !11
  %49 = getelementptr inbounds nuw %struct.UConverter, ptr %48, i32 0, i32 29
  %50 = getelementptr inbounds [2 x i16], ptr %49, i64 0, i64 0
  %51 = load ptr, ptr %7, align 8, !tbaa !3
  %52 = load i8, ptr %51, align 1, !tbaa !19
  %53 = sext i8 %52 to i32
  %54 = call ptr @u_memcpy_77(ptr noundef %47, ptr noundef %50, i32 noundef %53)
  br label %55

55:                                               ; preds = %16, %26, %37, %46, %39
  ret void
}