; Function Attrs: mustprogress uwtable
define void @ucnv_getInvalidUChars_77(ptr noundef %0, ptr noundef %1, ptr noundef %2, ptr noundef %3) local_unnamed_addr #0 {
  %5 = icmp eq ptr %3, null
  br i1 %5, label %26, label %6

6:                                                ; preds = %4
  %7 = load i32, ptr %3, align 4, !tbaa !3
  %8 = icmp slt i32 %7, 1
  br i1 %8, label %9, label %26

9:                                                ; preds = %6
  %10 = icmp eq ptr %2, null
  %11 = icmp eq ptr %1, null
  %or.cond = or i1 %11, %10
  %12 = icmp eq ptr %0, null
  %or.cond3 = or i1 %12, %or.cond
  br i1 %or.cond3, label %13, label %14

13:                                               ; preds = %9
  store i32 1, ptr %3, align 4, !tbaa !3
  br label %26

14:                                               ; preds = %9
  %15 = load i8, ptr %2, align 1, !tbaa !7
  %16 = getelementptr inbounds nuw i8, ptr %0, i64 92
  %17 = load i8, ptr %16, align 4, !tbaa !57
  %18 = sext i8 %17 to i32
  %19 = icmp slt i8 %15, %17
  br i1 %19, label %20, label %21

20:                                               ; preds = %14
  store i32 8, ptr %3, align 4, !tbaa !3
  br label %26

21:                                               ; preds = %14
  store i8 %17, ptr %2, align 1, !tbaa !7
  %22 = icmp sgt i8 %17, 0
  br i1 %22, label %23, label %26

23:                                               ; preds = %21
  %24 = getelementptr inbounds nuw i8, ptr %0, i64 140
  %25 = tail call ptr @u_memcpy_77(ptr noundef nonnull %1, ptr noundef nonnull %24, i32 noundef %18)
  br label %26

26:                                               ; preds = %4, %6, %23, %21, %20, %13
  ret void
}